target datalayout = "e-m:e-p270:32:32-p271:32:32-p272:64:64-i64:64-i128:128-f80:128-n8:16:32:64-S128"
target triple = "x86_64-pc-linux-gnu"

%struct.qlog_st = type { %struct.qlog_trace_info_st, ptr, [1 x i64], i32, ptr, ptr, ptr, %struct.OSSL_TIME, %struct.OSSL_TIME, %struct.ossl_json_enc_st, i32, i32 }
%struct.qlog_trace_info_st = type { %struct.quic_conn_id_st, ptr, ptr, ptr, i32, ptr, ptr, i64, ptr }
%struct.quic_conn_id_st = type { i8, [20 x i8] }
%struct.OSSL_TIME = type { i64 }
%struct.ossl_json_enc_st = type { i32, i8, i8, i8, ptr, i8, [16 x i8], %struct.json_write_buf, i64, i64 }
%struct.json_write_buf = type { ptr, ptr, i64, i64 }

; Function Attrs: nounwind uwtable
define i32 @ossl_qlog_flush(ptr noundef %0) #0 {
  %2 = alloca i32, align 4
  %3 = alloca ptr, align 8
  store ptr %0, ptr %3, align 8, !tbaa !8
  %4 = load ptr, ptr %3, align 8, !tbaa !8
  %5 = icmp eq ptr %4, null
  br i1 %5, label %6, label %7

6:                                                ; preds = %1
  store i32 1, ptr %2, align 4
  br label %11

7:                                                ; preds = %1
  %8 = load ptr, ptr %3, align 8, !tbaa !8
  %9 = getelementptr inbounds nuw %struct.qlog_st, ptr %8, i32 0, i32 9
  %10 = call i32 @ossl_json_flush(ptr noundef %9)
  store i32 %10, ptr %2, align 4
  br label %11

11:                                               ; preds = %7, %6
  %12 = load i32, ptr %2, align 4
  ret i32 %12
}

; Function Attrs: nounwind uwtable
define i32 @ossl_qlog_set_sink_bio(ptr noundef %0, ptr noundef %1) #0 {
  %3 = alloca i32, align 4
  %4 = alloca ptr, align 8
  %5 = alloca ptr, align 8
  store ptr %0, ptr %4, align 8, !tbaa !8
  store ptr %1, ptr %5, align 8, !tbaa !44
  %6 = load ptr, ptr %4, align 8, !tbaa !8
  %7 = icmp eq ptr %6, null
  br i1 %7, label %8, label %9

8:                                                ; preds = %2
  store i32 0, ptr %3, align 4
  br label %22

9:                                                ; preds = %2
  %10 = load ptr, ptr %4, align 8, !tbaa !8
  %11 = call i32 @ossl_qlog_flush(ptr noundef %10)
  %12 = load ptr, ptr %4, align 8, !tbaa !8
  %13 = getelementptr inbounds nuw %struct.qlog_st, ptr %12, i32 0, i32 1
  %14 = load ptr, ptr %13, align 8, !tbaa !47
  call void @BIO_free_all(ptr noundef %14)
  %15 = load ptr, ptr %5, align 8, !tbaa !44
  %16 = load ptr, ptr %4, align 8, !tbaa !8
  %17 = getelementptr inbounds nuw %struct.qlog_st, ptr %16, i32 0, i32 1
  store ptr %15, ptr %17, align 8, !tbaa !47
  %18 = load ptr, ptr %4, align 8, !tbaa !8
  %19 = getelementptr inbounds nuw %struct.qlog_st, ptr %18, i32 0, i32 9
  %20 = load ptr, ptr %5, align 8, !tbaa !44
  %21 = call i32 @ossl_json_set0_sink(ptr noundef %19, ptr noundef %20)
  store i32 1, ptr %3, align 4
  br label %22

22:                                               ; preds = %9, %8
  %23 = load i32, ptr %3, align 4
  ret i32 %23
}

; Function Attrs: nounwind uwtable
define i32 @ossl_qlog_set_sink_file(ptr noundef %0, ptr noundef %1, i32 noundef %2) #0 {
  %4 = alloca i32, align 4
  %5 = alloca ptr, align 8
  %6 = alloca ptr, align 8
  %7 = alloca i32, align 4
  %8 = alloca ptr, align 8
  %9 = alloca i32, align 4
  store ptr %0, ptr %5, align 8, !tbaa !8
  store ptr %1, ptr %6, align 8, !tbaa !48
  store i32 %2, ptr %7, align 4, !tbaa !45
  call void @llvm.lifetime.start.p0(i64 8, ptr %8) #9
  %10 = load ptr, ptr %5, align 8, !tbaa !8
  %11 = icmp eq ptr %10, null
  br i1 %11, label %12, label %13

12:                                               ; preds = %3
  store i32 0, ptr %4, align 4
  store i32 1, ptr %9, align 4
  br label %27

13:                                               ; preds = %3
  %14 = load ptr, ptr %6, align 8, !tbaa !48
  %15 = call ptr @BIO_new_fp(ptr noundef %14, i32 noundef 1)
  store ptr %15, ptr %8, align 8, !tbaa !44
  %16 = load ptr, ptr %8, align 8, !tbaa !44
  %17 = icmp eq ptr %16, null
  br i1 %17, label %18, label %19

18:                                               ; preds = %13
  store i32 0, ptr %4, align 4
  store i32 1, ptr %9, align 4
  br label %27

19:                                               ; preds = %13
  %20 = load ptr, ptr %5, align 8, !tbaa !8
  %21 = load ptr, ptr %8, align 8, !tbaa !44
  %22 = call i32 @ossl_qlog_set_sink_bio(ptr noundef %20, ptr noundef %21)
  %23 = icmp ne i32 %22, 0
  br i1 %23, label %26, label %24

24:                                               ; preds = %19
  %25 = load ptr, ptr %8, align 8, !tbaa !44
  call void @BIO_free_all(ptr noundef %25)
  store i32 0, ptr %4, align 4
  store i32 1, ptr %9, align 4
  br label %27

26:                                               ; preds = %19
  store i32 1, ptr %4, align 4
  store i32 1, ptr %9, align 4
  br label %27

27:                                               ; preds = %26, %24, %18, %12
  call void @llvm.lifetime.end.p0(i64 8, ptr %8) #9
  %28 = load i32, ptr %4, align 4
  ret i32 %28
}