; Function Attrs: nounwind uwtable
define range(i32 0, 2) i32 @ossl_qlog_set_sink_file(ptr noundef %0, ptr noundef %1, i32 noundef %2) local_unnamed_addr #0 {
  %4 = icmp eq ptr %0, null
  br i1 %4, label %13, label %5

5:                                                ; preds = %3
  %6 = tail call ptr @BIO_new_fp(ptr noundef %1, i32 noundef 1) #11
  %7 = icmp eq ptr %6, null
  br i1 %7, label %13, label %ossl_qlog_set_sink_bio.exit

ossl_qlog_set_sink_bio.exit:                      ; preds = %5
  %8 = getelementptr inbounds nuw i8, ptr %0, i64 152
  %9 = tail call i32 @ossl_json_flush(ptr noundef nonnull %8) #11
  %10 = getelementptr inbounds nuw i8, ptr %0, i64 88
  %11 = load ptr, ptr %10, align 8, !tbaa !37
  tail call void @BIO_free_all(ptr noundef %11) #11
  store ptr %6, ptr %10, align 8, !tbaa !37
  %12 = tail call i32 @ossl_json_set0_sink(ptr noundef nonnull %8, ptr noundef nonnull %6) #11
  br label %13

13:                                               ; preds = %ossl_qlog_set_sink_bio.exit, %5, %3
  %.0 = phi i32 [ 0, %3 ], [ 0, %5 ], [ 1, %ossl_qlog_set_sink_bio.exit ]
  ret i32 %.0
}